target datalayout = "e-m:e-p270:32:32-p271:32:32-p272:64:64-i64:64-i128:128-f80:128-n8:16:32:64-S128"
target triple = "x86_64-pc-linux-gnu"

%struct.__va_list_tag = type { i32, i32, ptr, ptr }

@.str.9 = private unnamed_addr constant [24 x i8] c"too many args to run %s\00", align 1
@.str.11 = private unnamed_addr constant [1 x i8] zeroinitializer, align 1
@git_gettext_enabled = external global i32, align 4

; Function Attrs: inlinehint nounwind uwtable
define internal i32 @const_error() #3 {
  ret i32 -1
}

; Function Attrs: inlinehint nounwind uwtable
define internal ptr @_(ptr noundef %0) #3 {
  %2 = alloca ptr, align 8
  %3 = alloca ptr, align 8
  store ptr %0, ptr %3, align 8, !tbaa !4
  %4 = load ptr, ptr %3, align 8, !tbaa !4
  %5 = load i8, ptr %4, align 1, !tbaa !9
  %6 = icmp ne i8 %5, 0
  br i1 %6, label %8, label %7

7:                                                ; preds = %1
  store ptr @.str.11, ptr %2, align 8
  br label %16

8:                                                ; preds = %1
  %9 = load i32, ptr @git_gettext_enabled, align 4, !tbaa !21
  %10 = icmp ne i32 %9, 0
  br i1 %10, label %13, label %11

11:                                               ; preds = %8
  %12 = load ptr, ptr %3, align 8, !tbaa !4
  store ptr %12, ptr %2, align 8
  br label %16

13:                                               ; preds = %8
  %14 = load ptr, ptr %3, align 8, !tbaa !4
  %15 = call ptr @dcgettext(ptr noundef null, ptr noundef %14, i32 noundef 5) #9
  store ptr %15, ptr %2, align 8
  br label %16

16:                                               ; preds = %13, %11, %7
  %17 = load ptr, ptr %2, align 8
  ret ptr %17
}

; Function Attrs: nounwind uwtable
define dso_local i32 @execl_git_cmd(ptr noundef %0, ...) #0 {
  %2 = alloca i32, align 4
  %3 = alloca ptr, align 8
  %4 = alloca i32, align 4
  %5 = alloca [33 x ptr], align 16
  %6 = alloca ptr, align 8
  %7 = alloca [1 x %struct.__va_list_tag], align 16
  %8 = alloca i32, align 4
  store ptr %0, ptr %3, align 8, !tbaa !4
  call void @llvm.lifetime.start.p0(i64 4, ptr %4) #9
  call void @llvm.lifetime.start.p0(i64 264, ptr %5) #9
  call void @llvm.lifetime.start.p0(i64 8, ptr %6) #9
  call void @llvm.lifetime.start.p0(i64 24, ptr %7) #9
  %9 = getelementptr inbounds [1 x %struct.__va_list_tag], ptr %7, i64 0, i64 0
  call void @llvm.va_start.p0(ptr %9)
  %10 = load ptr, ptr %3, align 8, !tbaa !4
  %11 = getelementptr inbounds [33 x ptr], ptr %5, i64 0, i64 0
  store ptr %10, ptr %11, align 16, !tbaa !4
  store i32 1, ptr %4, align 4, !tbaa !21
  br label %12

12:                                               ; preds = %39, %1
  %13 = load i32, ptr %4, align 4, !tbaa !21
  %14 = icmp slt i32 %13, 32
  br i1 %14, label %15, label %40

15:                                               ; preds = %12
  %16 = getelementptr inbounds [1 x %struct.__va_list_tag], ptr %7, i64 0, i64 0
  %17 = getelementptr inbounds nuw %struct.__va_list_tag, ptr %16, i32 0, i32 0
  %18 = load i32, ptr %17, align 16
  %19 = icmp ule i32 %18, 40
  br i1 %19, label %20, label %25

20:                                               ; preds = %15
  %21 = getelementptr inbounds nuw %struct.__va_list_tag, ptr %16, i32 0, i32 3
  %22 = load ptr, ptr %21, align 16
  %23 = getelementptr i8, ptr %22, i32 %18
  %24 = add i32 %18, 8
  store i32 %24, ptr %17, align 16
  br label %29

25:                                               ; preds = %15
  %26 = getelementptr inbounds nuw %struct.__va_list_tag, ptr %16, i32 0, i32 2
  %27 = load ptr, ptr %26, align 8
  %28 = getelementptr i8, ptr %27, i32 8
  store ptr %28, ptr %26, align 8
  br label %29

29:                                               ; preds = %25, %20
  %30 = phi ptr [ %23, %20 ], [ %27, %25 ]
  %31 = load ptr, ptr %30, align 8, !tbaa !4
  %32 = load i32, ptr %4, align 4, !tbaa !21
  %33 = add nsw i32 %32, 1
  store i32 %33, ptr %4, align 4, !tbaa !21
  %34 = sext i32 %32 to i64
  %35 = getelementptr inbounds [33 x ptr], ptr %5, i64 0, i64 %34
  store ptr %31, ptr %35, align 8, !tbaa !4
  store ptr %31, ptr %6, align 8, !tbaa !4
  %36 = load ptr, ptr %6, align 8, !tbaa !4
  %37 = icmp ne ptr %36, null
  br i1 %37, label %39, label %38

38:                                               ; preds = %29
  br label %40

39:                                               ; preds = %29
  br label %12, !llvm.loop !27

40:                                               ; preds = %38, %12
  %41 = getelementptr inbounds [1 x %struct.__va_list_tag], ptr %7, i64 0, i64 0
  call void @llvm.va_end.p0(ptr %41)
  %42 = load i32, ptr %4, align 4, !tbaa !21
  %43 = icmp sle i32 32, %42
  br i1 %43, label %44, label %49

44:                                               ; preds = %40
  %45 = call ptr @_(ptr noundef @.str.9)
  %46 = load ptr, ptr %3, align 8, !tbaa !4
  %47 = call i32 (ptr, ...) @error(ptr noundef %45, ptr noundef %46)
  %48 = call i32 @const_error()
  store i32 %48, ptr %2, align 4
  store i32 1, ptr %8, align 4
  br label %55

49:                                               ; preds = %40
  %50 = load i32, ptr %4, align 4, !tbaa !21
  %51 = sext i32 %50 to i64
  %52 = getelementptr inbounds [33 x ptr], ptr %5, i64 0, i64 %51
  store ptr null, ptr %52, align 8, !tbaa !4
  %53 = getelementptr inbounds [33 x ptr], ptr %5, i64 0, i64 0
  %54 = call i32 @execv_git_cmd(ptr noundef %53)
  store i32 %54, ptr %2, align 4
  store i32 1, ptr %8, align 4
  br label %55

55:                                               ; preds = %49, %44
  call void @llvm.lifetime.end.p0(i64 24, ptr %7) #9
  call void @llvm.lifetime.end.p0(i64 8, ptr %6) #9
  call void @llvm.lifetime.end.p0(i64 264, ptr %5) #9
  call void @llvm.lifetime.end.p0(i64 4, ptr %4) #9
  %56 = load i32, ptr %2, align 4
  ret i32 %56
}