; Function Attrs: nounwind uwtable
define dso_local noundef i32 @execl_git_cmd(ptr noundef %0, ...) local_unnamed_addr #1 {
  %2 = alloca [33 x ptr], align 16
  %3 = alloca [1 x %struct.__va_list_tag], align 16
  call void @llvm.lifetime.start.p0(i64 264, ptr nonnull %2) #10
  call void @llvm.lifetime.start.p0(i64 24, ptr nonnull %3) #10
  call void @llvm.va_start.p0(ptr nonnull %3)
  store ptr %0, ptr %2, align 16, !tbaa !7
  %.promoted = load i32, ptr %3, align 16
  %4 = getelementptr inbounds nuw i8, ptr %3, i64 8
  %5 = getelementptr inbounds nuw i8, ptr %3, i64 16
  %6 = load ptr, ptr %5, align 16
  %.promoted12 = load ptr, ptr %4, align 8
  br label %7

7:                                                ; preds = %1, %17
  %indvars.iv = phi i64 [ 1, %1 ], [ %indvars.iv.next, %17 ]
  %8 = phi ptr [ %.promoted12, %1 ], [ %18, %17 ]
  %9 = phi i32 [ %.promoted, %1 ], [ %19, %17 ]
  %10 = icmp ult i32 %9, 41
  br i1 %10, label %11, label %15

11:                                               ; preds = %7
  %12 = zext nneg i32 %9 to i64
  %13 = getelementptr i8, ptr %6, i64 %12
  %14 = add nuw nsw i32 %9, 8
  store i32 %14, ptr %3, align 16
  br label %17

15:                                               ; preds = %7
  %16 = getelementptr i8, ptr %8, i64 8
  store ptr %16, ptr %4, align 8
  br label %17

17:                                               ; preds = %15, %11
  %18 = phi ptr [ %8, %11 ], [ %16, %15 ]
  %19 = phi i32 [ %14, %11 ], [ %9, %15 ]
  %20 = phi ptr [ %13, %11 ], [ %8, %15 ]
  %21 = load ptr, ptr %20, align 8, !tbaa !7
  %indvars.iv.next = add nuw nsw i64 %indvars.iv, 1
  %22 = getelementptr inbounds nuw [33 x ptr], ptr %2, i64 0, i64 %indvars.iv
  store ptr %21, ptr %22, align 8, !tbaa !7
  %23 = icmp ne ptr %21, null
  %24 = icmp samesign ult i64 %indvars.iv, 31
  %or.cond = select i1 %23, i1 %24, i1 false
  br i1 %or.cond, label %7, label %25, !llvm.loop !22

25:                                               ; preds = %17
  call void @llvm.va_end.p0(ptr nonnull %3)
  %26 = icmp samesign ugt i64 %indvars.iv, 30
  br i1 %26, label %27, label %32

27:                                               ; preds = %25
  %28 = load i32, ptr @git_gettext_enabled, align 4, !tbaa !21
  %.not.i = icmp eq i32 %28, 0
  br i1 %.not.i, label %_.exit, label %29

29:                                               ; preds = %27
  %30 = call ptr @dcgettext(ptr noundef null, ptr noundef nonnull @.str.9, i32 noundef 5) #10
  br label %_.exit

_.exit:                                           ; preds = %27, %29
  %.0.i = phi ptr [ %30, %29 ], [ @.str.9, %27 ]
  %31 = call i32 (ptr, ...) @error(ptr noundef %.0.i, ptr noundef %0) #10
  br label %35

32:                                               ; preds = %25
  %33 = getelementptr inbounds nuw [33 x ptr], ptr %2, i64 0, i64 %indvars.iv.next
  store ptr null, ptr %33, align 8, !tbaa !7
  %34 = call i32 @execv_git_cmd(ptr noundef nonnull %2)
  br label %35

35:                                               ; preds = %32, %_.exit
  call void @llvm.lifetime.end.p0(i64 24, ptr nonnull %3) #10
  call void @llvm.lifetime.end.p0(i64 264, ptr nonnull %2) #10
  ret i32 -1
}